target datalayout = "e-m:e-p270:32:32-p271:32:32-p272:64:64-i64:64-i128:128-f80:128-n8:16:32:64-S128"
target triple = "x86_64-pc-linux-gnu"

%struct.lex_context = type { i16, [2 x i8] }
%struct.parser_params = type { ptr, ptr, %struct.anon.12, i64, i64, i32, i32, i32, i32, i32, ptr, ptr, ptr, ptr, i32, i32, ptr, i64, ptr, ptr, ptr, ptr, i64, i64, %struct.anon.13, ptr, i32, ptr, i32, i64, %struct.lex_context, ptr, ptr, ptr, i32, i64, ptr, ptr, i32, ptr }
%struct.anon.12 = type { ptr, ptr, ptr, %struct.parser_string_buffer, ptr, ptr, ptr, ptr, ptr, ptr, i32, i32, i32, i32 }
%struct.parser_string_buffer = type { ptr, ptr }
%struct.anon.13 = type { ptr, i32, i32, i32, i32 }

; Function Attrs: nounwind sspstrong uwtable
define internal void @tokadd(ptr noundef %0, i32 noundef %1) #0 {
  %3 = alloca ptr, align 8
  %4 = alloca i32, align 4
  store ptr %0, ptr %3, align 8, !tbaa !7
  store i32 %1, ptr %4, align 4, !tbaa !34
  %5 = load i32, ptr %4, align 4, !tbaa !34
  %6 = trunc i32 %5 to i8
  %7 = load ptr, ptr %3, align 8, !tbaa !7
  %8 = getelementptr inbounds nuw %struct.parser_params, ptr %7, i32 0, i32 10
  %9 = load ptr, ptr %8, align 8, !tbaa !561
  %10 = load ptr, ptr %3, align 8, !tbaa !7
  %11 = getelementptr inbounds nuw %struct.parser_params, ptr %10, i32 0, i32 5
  %12 = load i32, ptr %11, align 8, !tbaa !652
  %13 = add i32 %12, 1
  store i32 %13, ptr %11, align 8, !tbaa !652
  %14 = sext i32 %12 to i64
  %15 = getelementptr i8, ptr %9, i64 %14
  store i8 %6, ptr %15, align 1, !tbaa !27
  %16 = load ptr, ptr %3, align 8, !tbaa !7
  %17 = getelementptr inbounds nuw %struct.parser_params, ptr %16, i32 0, i32 5
  %18 = load i32, ptr %17, align 8, !tbaa !652
  %19 = load ptr, ptr %3, align 8, !tbaa !7
  %20 = getelementptr inbounds nuw %struct.parser_params, ptr %19, i32 0, i32 6
  %21 = load i32, ptr %20, align 4, !tbaa !562
  %22 = icmp sge i32 %18, %21
  br i1 %22, label %23, label %38

23:                                               ; preds = %2
  %24 = load ptr, ptr %3, align 8, !tbaa !7
  %25 = getelementptr inbounds nuw %struct.parser_params, ptr %24, i32 0, i32 6
  %26 = load i32, ptr %25, align 4, !tbaa !562
  %27 = mul i32 %26, 2
  store i32 %27, ptr %25, align 4, !tbaa !562
  %28 = load ptr, ptr %3, align 8, !tbaa !7
  %29 = getelementptr inbounds nuw %struct.parser_params, ptr %28, i32 0, i32 10
  %30 = load ptr, ptr %29, align 8, !tbaa !561
  %31 = load ptr, ptr %3, align 8, !tbaa !7
  %32 = getelementptr inbounds nuw %struct.parser_params, ptr %31, i32 0, i32 6
  %33 = load i32, ptr %32, align 4, !tbaa !562
  %34 = sext i32 %33 to i64
  %35 = call nonnull ptr @ruby_xrealloc2(ptr noundef %30, i64 noundef %34, i64 noundef 1) #37
  %36 = load ptr, ptr %3, align 8, !tbaa !7
  %37 = getelementptr inbounds nuw %struct.parser_params, ptr %36, i32 0, i32 10
  store ptr %35, ptr %37, align 8, !tbaa !561
  br label %38

38:                                               ; preds = %23, %2
  ret void
}