; Function Attrs: nounwind sspstrong uwtable
define internal fastcc void @tokadd(ptr noundef captures(none) %0, i32 noundef %1) unnamed_addr #0 {
  %3 = trunc i32 %1 to i8
  %4 = getelementptr inbounds nuw i8, ptr %0, i64 160
  %5 = load ptr, ptr %4, align 8, !tbaa !506
  %6 = getelementptr inbounds nuw i8, ptr %0, i64 136
  %7 = load i32, ptr %6, align 8, !tbaa !574
  %8 = add i32 %7, 1
  store i32 %8, ptr %6, align 8, !tbaa !574
  %9 = sext i32 %7 to i64
  %10 = getelementptr i8, ptr %5, i64 %9
  store i8 %3, ptr %10, align 1, !tbaa !25
  %11 = load i32, ptr %6, align 8, !tbaa !574
  %12 = getelementptr inbounds nuw i8, ptr %0, i64 140
  %13 = load i32, ptr %12, align 4, !tbaa !515
  %.not = icmp slt i32 %11, %13
  br i1 %.not, label %19, label %14

14:                                               ; preds = %2
  %15 = shl i32 %13, 1
  store i32 %15, ptr %12, align 4, !tbaa !515
  %16 = load ptr, ptr %4, align 8, !tbaa !506
  %17 = sext i32 %15 to i64
  %18 = tail call nonnull ptr @ruby_xrealloc2(ptr noundef %16, i64 noundef %17, i64 noundef 1) #43
  store ptr %18, ptr %4, align 8, !tbaa !506
  br label %19

19:                                               ; preds = %14, %2
  ret void
}